; Function Attrs: mustprogress nofree norecurse nosync nounwind willreturn memory(argmem: read) uwtable
define hidden noundef zeroext i16 @_ZN12ConstantPool22signature_ref_index_atEi(ptr nocapture noundef nonnull readonly align 8 dereferenceable(68) %0, i32 noundef %1) local_unnamed_addr #6 align 2 {
  %3 = getelementptr inbounds i8, ptr %0, i64 72
  %4 = sext i32 %1 to i64
  %5 = getelementptr inbounds i64, ptr %3, i64 %4
  %6 = load i32, ptr %5, align 8
  %7 = lshr i32 %6, 16
  %8 = trunc nuw i32 %7 to i16
  ret i16 %8
}